target datalayout = "e-m:e-p270:32:32-p271:32:32-p272:64:64-i64:64-i128:128-f80:128-n8:16:32:64-S128"
target triple = "x86_64-unknown-linux-gnu"

%"class.QuantLib::AbcdMathFunction" = type { double, double, double, double, %"class.std::vector", %"class.std::vector", double, double, double, double, double, double, double }
%"class.std::vector" = type { %"struct.std::_Vector_base" }
%"struct.std::_Vector_base" = type { %"struct.std::_Vector_base<double, std::allocator<double>>::_Vector_impl" }
%"struct.std::_Vector_base<double, std::allocator<double>>::_Vector_impl" = type { %"struct.std::_Vector_base<double, std::allocator<double>>::_Vector_impl_data" }
%"struct.std::_Vector_base<double, std::allocator<double>>::_Vector_impl_data" = type { ptr, ptr, ptr }

; Function Attrs: mustprogress nounwind uwtable
define linkonce_odr noundef double @_ZNSt14numeric_limitsIdE3maxEv() #3 comdat align 2 {
entry:
  ret double 0x7FEFFFFFFFFFFFFF
}

; Function Attrs: mustprogress nounwind uwtable
define noundef double @_ZNK8QuantLib16AbcdMathFunction15maximumLocationEv(ptr noundef nonnull align 8 dereferenceable(136) %this) #3 align 2 {
entry:
  %retval = alloca double, align 8
  %this.addr = alloca ptr, align 8
  %zeroFirstDerivative = alloca double, align 8
  store ptr %this, ptr %this.addr, align 8, !tbaa !9
  %this1 = load ptr, ptr %this.addr, align 8
  %b_ = getelementptr inbounds nuw %"class.QuantLib::AbcdMathFunction", ptr %this1, i32 0, i32 1
  %0 = load double, ptr %b_, align 8, !tbaa !19
  %cmp = fcmp oeq double %0, 0.000000e+00
  br i1 %cmp, label %if.then, label %if.end

if.then:                                          ; preds = %entry
  %a_ = getelementptr inbounds nuw %"class.QuantLib::AbcdMathFunction", ptr %this1, i32 0, i32 0
  %1 = load double, ptr %a_, align 8, !tbaa !13
  %cmp2 = fcmp oge double %1, 0.000000e+00
  br i1 %cmp2, label %if.then3, label %if.else

if.then3:                                         ; preds = %if.then
  store double 0.000000e+00, ptr %retval, align 8
  br label %return

if.else:                                          ; preds = %if.then
  %call = call noundef double @_ZNSt14numeric_limitsIdE3maxEv() #15
  store double %call, ptr %retval, align 8
  br label %return

if.end:                                           ; preds = %entry
  call void @llvm.lifetime.start.p0(i64 8, ptr %zeroFirstDerivative) #15
  %c_ = getelementptr inbounds nuw %"class.QuantLib::AbcdMathFunction", ptr %this1, i32 0, i32 2
  %2 = load double, ptr %c_, align 8, !tbaa !20
  %div = fdiv double 1.000000e+00, %2
  %a_4 = getelementptr inbounds nuw %"class.QuantLib::AbcdMathFunction", ptr %this1, i32 0, i32 0
  %3 = load double, ptr %a_4, align 8, !tbaa !13
  %b_5 = getelementptr inbounds nuw %"class.QuantLib::AbcdMathFunction", ptr %this1, i32 0, i32 1
  %4 = load double, ptr %b_5, align 8, !tbaa !19
  %div6 = fdiv double %3, %4
  %sub = fsub double %div, %div6
  store double %sub, ptr %zeroFirstDerivative, align 8, !tbaa !3
  %5 = load double, ptr %zeroFirstDerivative, align 8, !tbaa !3
  %cmp7 = fcmp ogt double %5, 0.000000e+00
  br i1 %cmp7, label %cond.true, label %cond.false

cond.true:                                        ; preds = %if.end
  %6 = load double, ptr %zeroFirstDerivative, align 8, !tbaa !3
  br label %cond.end

cond.false:                                       ; preds = %if.end
  br label %cond.end

cond.end:                                         ; preds = %cond.false, %cond.true
  %cond = phi double [ %6, %cond.true ], [ 0.000000e+00, %cond.false ]
  store double %cond, ptr %retval, align 8
  call void @llvm.lifetime.end.p0(i64 8, ptr %zeroFirstDerivative) #15
  br label %return

return:                                           ; preds = %cond.end, %if.else, %if.then3
  %7 = load double, ptr %retval, align 8
  ret double %7
}