; Function Attrs: mustprogress nofree norecurse nosync nounwind willreturn memory(argmem: read) uwtable
define noundef double @_ZNK8QuantLib16AbcdMathFunction15maximumLocationEv(ptr nocapture noundef nonnull readonly align 8 dereferenceable(136) %this) local_unnamed_addr #8 align 2 {
entry:
  %b_ = getelementptr inbounds nuw i8, ptr %this, i64 8
  %0 = load double, ptr %b_, align 8, !tbaa !27
  %cmp = fcmp oeq double %0, 0.000000e+00
  br i1 %cmp, label %if.then, label %if.end

if.then:                                          ; preds = %entry
  %1 = load double, ptr %this, align 8, !tbaa !20
  %cmp2 = fcmp ult double %1, 0.000000e+00
  br i1 %cmp2, label %if.else, label %return

if.else:                                          ; preds = %if.then
  br label %return

if.end:                                           ; preds = %entry
  %c_ = getelementptr inbounds nuw i8, ptr %this, i64 16
  %2 = load double, ptr %c_, align 8, !tbaa !28
  %div = fdiv double 1.000000e+00, %2
  %3 = load double, ptr %this, align 8, !tbaa !20
  %div6 = fdiv double %3, %0
  %sub = fsub double %div, %div6
  %cmp7 = fcmp ogt double %sub, 0.000000e+00
  %cond = select i1 %cmp7, double %sub, double 0.000000e+00
  br label %return

return:                                           ; preds = %if.then, %if.end, %if.else
  %retval.0 = phi double [ 0x7FEFFFFFFFFFFFFF, %if.else ], [ %cond, %if.end ], [ 0.000000e+00, %if.then ]
  ret double %retval.0
}